; Function Attrs: nounwind uwtable
define i32 @pmix_bfrops_base_unpack_ptr(ptr noundef %0, ptr noundef %1, ptr noundef readnone captures(none) %2, ptr noundef readnone captures(none) %3, i16 noundef zeroext %4) local_unnamed_addr #0 {
  %6 = alloca i8, align 1
  %7 = alloca i32, align 4
  call void @llvm.lifetime.start.p0(i64 1, ptr nonnull %6) #10
  store i8 1, ptr %6, align 1, !tbaa !35
  call void @llvm.lifetime.start.p0(i64 4, ptr nonnull %7) #10
  store i32 1, ptr %7, align 4, !tbaa !3
  %8 = getelementptr inbounds nuw i8, ptr %0, i64 128
  %9 = load i32, ptr %8, align 8, !tbaa !26
  %.not.i = icmp sgt i32 %9, 12
  br i1 %.not.i, label %pmix_pointer_array_get_item.exit, label %pmix_pointer_array_get_item.exit.thread, !prof !29

pmix_pointer_array_get_item.exit:                 ; preds = %5
  %10 = getelementptr inbounds nuw i8, ptr %0, i64 152
  %11 = load ptr, ptr %10, align 8, !tbaa !30
  %12 = getelementptr inbounds nuw i8, ptr %11, i64 96
  %13 = load ptr, ptr %12, align 8, !tbaa !31
  %14 = icmp eq ptr %13, null
  br i1 %14, label %pmix_pointer_array_get_item.exit.thread, label %15

15:                                               ; preds = %pmix_pointer_array_get_item.exit
  %16 = getelementptr inbounds nuw i8, ptr %13, i64 144
  %17 = load ptr, ptr %16, align 8, !tbaa !32
  %18 = call i32 %17(ptr noundef nonnull %0, ptr noundef %1, ptr noundef nonnull %6, ptr noundef nonnull %7, i16 noundef zeroext 12) #10
  br label %pmix_pointer_array_get_item.exit.thread

pmix_pointer_array_get_item.exit.thread:          ; preds = %5, %pmix_pointer_array_get_item.exit, %15
  %.0 = phi i32 [ %18, %15 ], [ -16, %pmix_pointer_array_get_item.exit ], [ -16, %5 ]
  call void @llvm.lifetime.end.p0(i64 4, ptr nonnull %7) #10
  call void @llvm.lifetime.end.p0(i64 1, ptr nonnull %6) #10
  ret i32 %.0
}